target datalayout = "e-m:e-p270:32:32-p271:32:32-p272:64:64-i64:64-i128:128-f80:128-n8:16:32:64-S128"
target triple = "x86_64-pc-linux-gnu"

%struct.pj_ctx = type <{ %"class.std::__cxx11::basic_string", i32, i32, i8, i8, [6 x i8], ptr, ptr, ptr, i32, i8, [3 x i8], i32, [4 x i8], %"class.std::__cxx11::basic_string", %"class.std::vector", ptr, ptr, ptr, i8, [7 x i8], %struct.projFileApiCallbackAndData, %"class.std::__cxx11::basic_string", %"class.std::__cxx11::basic_string", i8, [7 x i8], %"class.std::__cxx11::basic_string", %struct.projNetworkCallbacksAndData, %"class.std::__cxx11::basic_string", %struct.projGridChunkCache, i32, i32, i32, [4 x i8] }>
%"class.std::vector" = type { %"struct.std::_Vector_base" }
%"struct.std::_Vector_base" = type { %"struct.std::_Vector_base<std::__cxx11::basic_string<char>, std::allocator<std::__cxx11::basic_string<char>>>::_Vector_impl" }
%"struct.std::_Vector_base<std::__cxx11::basic_string<char>, std::allocator<std::__cxx11::basic_string<char>>>::_Vector_impl" = type { %"struct.std::_Vector_base<std::__cxx11::basic_string<char>, std::allocator<std::__cxx11::basic_string<char>>>::_Vector_impl_data" }
%"struct.std::_Vector_base<std::__cxx11::basic_string<char>, std::allocator<std::__cxx11::basic_string<char>>>::_Vector_impl_data" = type { ptr, ptr, ptr }
%struct.projFileApiCallbackAndData = type { ptr, ptr, ptr, ptr, ptr, ptr, ptr, ptr, ptr, ptr, ptr }
%struct.projNetworkCallbacksAndData = type { i8, ptr, ptr, ptr, ptr, ptr }
%"class.std::__cxx11::basic_string" = type { %"struct.std::__cxx11::basic_string<char>::_Alloc_hider", i64, %union.anon }
%"struct.std::__cxx11::basic_string<char>::_Alloc_hider" = type { ptr }
%union.anon = type { i64, [8 x i8] }
%struct.projGridChunkCache = type <{ i8, [7 x i8], %"class.std::__cxx11::basic_string", i64, i32, [4 x i8] }>
%"class.std::allocator" = type { i8 }
%struct.PJconsts = type <{ ptr, ptr, ptr, ptr, ptr, ptr, ptr, ptr, ptr, ptr, ptr, ptr, i32, [4 x i8], ptr, ptr, ptr, ptr, ptr, ptr, ptr, ptr, double, double, double, double, double, double, double, double, double, double, double, double, double, double, double, double, double, double, double, double, double, double, i32, i32, i32, i32, i32, i32, i32, i32, i32, i32, i32, [4 x i8], ptr, ptr, ptr, ptr, ptr, ptr, double, double, double, double, double, double, double, double, double, double, double, i32, [4 x i8], [7 x double], i32, [4 x i8], ptr, ptr, double, double, i32, [4 x i8], %"class.std::shared_ptr", i8, [7 x i8], double, i8, [7 x i8], %"class.std::__cxx11::basic_string", %"class.std::__cxx11::basic_string", %"class.std::__cxx11::basic_string", i8, [7 x i8], %"class.std::vector.3", i32, [4 x i8], %"class.std::vector.8", i32, i8, i8, i8, i8 }>
%"class.std::shared_ptr" = type { %"class.std::__shared_ptr" }
%"class.std::__shared_ptr" = type { ptr, %"class.std::__shared_count" }
%"class.std::__shared_count" = type { ptr }
%"class.std::vector.3" = type { %"struct.std::_Vector_base.4" }
%"struct.std::_Vector_base.4" = type { %"struct.std::_Vector_base<osgeo::proj::operation::GridDescription, std::allocator<osgeo::proj::operation::GridDescription>>::_Vector_impl" }
%"struct.std::_Vector_base<osgeo::proj::operation::GridDescription, std::allocator<osgeo::proj::operation::GridDescription>>::_Vector_impl" = type { %"struct.std::_Vector_base<osgeo::proj::operation::GridDescription, std::allocator<osgeo::proj::operation::GridDescription>>::_Vector_impl_data" }
%"struct.std::_Vector_base<osgeo::proj::operation::GridDescription, std::allocator<osgeo::proj::operation::GridDescription>>::_Vector_impl_data" = type { ptr, ptr, ptr }
%"class.std::vector.8" = type { %"struct.std::_Vector_base.9" }
%"struct.std::_Vector_base.9" = type { %"struct.std::_Vector_base<PJCoordOperation, std::allocator<PJCoordOperation>>::_Vector_impl" }
%"struct.std::_Vector_base<PJCoordOperation, std::allocator<PJCoordOperation>>::_Vector_impl" = type { %"struct.std::_Vector_base<PJCoordOperation, std::allocator<PJCoordOperation>>::_Vector_impl_data" }
%"struct.std::_Vector_base<PJCoordOperation, std::allocator<PJCoordOperation>>::_Vector_impl_data" = type { ptr, ptr, ptr }

@.str.1 = private unnamed_addr constant [3 x i8] c": \00", align 1

; Function Attrs: mustprogress nounwind uwtable
define hidden noundef zeroext i1 @_Z13pj_log_activeP6pj_ctxi(ptr noundef %0, i32 noundef %1) #0 {
  %3 = alloca i1, align 1
  %4 = alloca ptr, align 8
  %5 = alloca i32, align 4
  %6 = alloca i32, align 4
  %7 = alloca i32, align 4
  store ptr %0, ptr %4, align 8
  store i32 %1, ptr %5, align 4
  %8 = load ptr, ptr %4, align 8
  %9 = getelementptr inbounds %struct.pj_ctx, ptr %8, i32 0, i32 2
  %10 = load i32, ptr %9, align 4
  store i32 %10, ptr %6, align 4
  %11 = load i32, ptr %6, align 4
  %12 = icmp slt i32 %11, 0
  %13 = zext i1 %12 to i32
  store i32 %13, ptr %7, align 4
  %14 = load ptr, ptr %4, align 8
  %15 = getelementptr inbounds %struct.pj_ctx, ptr %14, i32 0, i32 1
  %16 = load i32, ptr %15, align 8
  %17 = icmp eq i32 %16, 0
  br i1 %17, label %18, label %22

18:                                               ; preds = %2
  %19 = load i32, ptr %7, align 4
  %20 = icmp ne i32 %19, 0
  br i1 %20, label %21, label %22

21:                                               ; preds = %18
  store i1 false, ptr %3, align 1
  br label %34

22:                                               ; preds = %18, %2
  %23 = load i32, ptr %6, align 4
  %24 = icmp slt i32 %23, 0
  br i1 %24, label %25, label %28

25:                                               ; preds = %22
  %26 = load i32, ptr %6, align 4
  %27 = sub nsw i32 0, %26
  store i32 %27, ptr %6, align 4
  br label %28

28:                                               ; preds = %25, %22
  %29 = load i32, ptr %5, align 4
  %30 = load i32, ptr %6, align 4
  %31 = icmp sgt i32 %29, %30
  br i1 %31, label %32, label %33

32:                                               ; preds = %28
  store i1 false, ptr %3, align 1
  br label %34

33:                                               ; preds = %28
  store i1 true, ptr %3, align 1
  br label %34

34:                                               ; preds = %33, %32, %21
  %35 = load i1, ptr %3, align 1
  ret i1 %35
}

; Function Attrs: mustprogress uwtable
define internal void @_ZL7pj_vlogP6pj_ctxiPK8PJconstsPKcP13__va_list_tag(ptr noundef %0, i32 noundef %1, ptr noundef %2, ptr noundef %3, ptr noundef %4) #2 personality ptr @__gxx_personality_v0 {
  %6 = alloca ptr, align 8
  %7 = alloca i32, align 4
  %8 = alloca ptr, align 8
  %9 = alloca ptr, align 8
  %10 = alloca ptr, align 8
  %11 = alloca ptr, align 8
  %12 = alloca i64, align 8
  %13 = alloca %"class.std::__cxx11::basic_string", align 8
  %14 = alloca %"class.std::allocator", align 1
  %15 = alloca ptr, align 8
  %16 = alloca i32, align 4
  store ptr %0, ptr %6, align 8
  store i32 %1, ptr %7, align 4
  store ptr %2, ptr %8, align 8
  store ptr %3, ptr %9, align 8
  store ptr %4, ptr %10, align 8
  %17 = load ptr, ptr %6, align 8
  %18 = load i32, ptr %7, align 4
  %19 = call noundef zeroext i1 @_Z13pj_log_activeP6pj_ctxi(ptr noundef %17, i32 noundef %18)
  br i1 %19, label %21, label %20

20:                                               ; preds = %5
  br label %73

21:                                               ; preds = %5
  store i64 100000, ptr %12, align 8
  %22 = call noalias ptr @malloc(i64 noundef 100000) #8
  store ptr %22, ptr %11, align 8
  %23 = load ptr, ptr %11, align 8
  %24 = icmp eq ptr %23, null
  br i1 %24, label %25, label %26

25:                                               ; preds = %21
  br label %73

26:                                               ; preds = %21
  %27 = load ptr, ptr %8, align 8
  %28 = icmp eq ptr %27, null
  br i1 %28, label %34, label %29

29:                                               ; preds = %26
  %30 = load ptr, ptr %8, align 8
  %31 = getelementptr inbounds %struct.PJconsts, ptr %30, i32 0, i32 1
  %32 = load ptr, ptr %31, align 8
  %33 = icmp eq ptr %32, null
  br i1 %33, label %34, label %39

34:                                               ; preds = %29, %26
  %35 = load ptr, ptr %11, align 8
  %36 = load ptr, ptr %9, align 8
  %37 = load ptr, ptr %10, align 8
  %38 = call i32 @vsnprintf(ptr noundef %35, i64 noundef 100000, ptr noundef %36, ptr noundef %37) #7
  br label %61

39:                                               ; preds = %29
  %40 = load ptr, ptr %8, align 8
  %41 = getelementptr inbounds %struct.PJconsts, ptr %40, i32 0, i32 1
  %42 = load ptr, ptr %41, align 8
  call void @_ZNSaIcEC1Ev(ptr noundef nonnull align 1 dereferenceable(1) %14) #7
  invoke void @_ZNSt7__cxx1112basic_stringIcSt11char_traitsIcESaIcEEC1EPKcRKS3_(ptr noundef nonnull align 8 dereferenceable(32) %13, ptr noundef %42, ptr noundef nonnull align 1 dereferenceable(1) %14)
          to label %43 unwind label %53

43:                                               ; preds = %39
  call void @_ZNSaIcED1Ev(ptr noundef nonnull align 1 dereferenceable(1) %14) #7
  %44 = invoke noundef nonnull align 8 dereferenceable(32) ptr @_ZNSt7__cxx1112basic_stringIcSt11char_traitsIcESaIcEEpLEPKc(ptr noundef nonnull align 8 dereferenceable(32) %13, ptr noundef @.str.1)
          to label %45 unwind label %57

45:                                               ; preds = %43
  %46 = load ptr, ptr %9, align 8
  %47 = invoke noundef nonnull align 8 dereferenceable(32) ptr @_ZNSt7__cxx1112basic_stringIcSt11char_traitsIcESaIcEEpLEPKc(ptr noundef nonnull align 8 dereferenceable(32) %13, ptr noundef %46)
          to label %48 unwind label %57

48:                                               ; preds = %45
  %49 = load ptr, ptr %11, align 8
  %50 = call noundef ptr @_ZNKSt7__cxx1112basic_stringIcSt11char_traitsIcESaIcEE5c_strEv(ptr noundef nonnull align 8 dereferenceable(32) %13) #7
  %51 = load ptr, ptr %10, align 8
  %52 = call i32 @vsnprintf(ptr noundef %49, i64 noundef 100000, ptr noundef %50, ptr noundef %51) #7
  call void @_ZNSt7__cxx1112basic_stringIcSt11char_traitsIcESaIcEED1Ev(ptr noundef nonnull align 8 dereferenceable(32) %13) #7
  br label %61

53:                                               ; preds = %39
  %54 = landingpad { ptr, i32 }
          cleanup
  %55 = extractvalue { ptr, i32 } %54, 0
  store ptr %55, ptr %15, align 8
  %56 = extractvalue { ptr, i32 } %54, 1
  store i32 %56, ptr %16, align 4
  call void @_ZNSaIcED1Ev(ptr noundef nonnull align 1 dereferenceable(1) %14) #7
  br label %74

57:                                               ; preds = %45, %43
  %58 = landingpad { ptr, i32 }
          cleanup
  %59 = extractvalue { ptr, i32 } %58, 0
  store ptr %59, ptr %15, align 8
  %60 = extractvalue { ptr, i32 } %58, 1
  store i32 %60, ptr %16, align 4
  call void @_ZNSt7__cxx1112basic_stringIcSt11char_traitsIcESaIcEED1Ev(ptr noundef nonnull align 8 dereferenceable(32) %13) #7
  br label %74

61:                                               ; preds = %48, %34
  %62 = load ptr, ptr %11, align 8
  %63 = getelementptr inbounds i8, ptr %62, i64 99999
  store i8 0, ptr %63, align 1
  %64 = load ptr, ptr %6, align 8
  %65 = getelementptr inbounds %struct.pj_ctx, ptr %64, i32 0, i32 6
  %66 = load ptr, ptr %65, align 8
  %67 = load ptr, ptr %6, align 8
  %68 = getelementptr inbounds %struct.pj_ctx, ptr %67, i32 0, i32 7
  %69 = load ptr, ptr %68, align 8
  %70 = load i32, ptr %7, align 4
  %71 = load ptr, ptr %11, align 8
  call void %66(ptr noundef %69, i32 noundef %70, ptr noundef %71)
  %72 = load ptr, ptr %11, align 8
  call void @free(ptr noundef %72) #7
  br label %73

73:                                               ; preds = %61, %25, %20
  ret void

74:                                               ; preds = %57, %53
  %75 = load ptr, ptr %15, align 8
  %76 = load i32, ptr %16, align 4
  %77 = insertvalue { ptr, i32 } poison, ptr %75, 0
  %78 = insertvalue { ptr, i32 } %77, i32 %76, 1
  resume { ptr, i32 } %78
}