; Function Attrs: mustprogress uwtable
define internal fastcc void @_ZL7pj_vlogP6pj_ctxiPK8PJconstsPKcP13__va_list_tag(ptr nocapture noundef readonly %0, i32 noundef %1, ptr noundef readonly %2, ptr noundef %3, ptr noundef %4) unnamed_addr #3 personality ptr @__gxx_personality_v0 {
  %6 = alloca %"class.std::__cxx11::basic_string", align 8
  %7 = alloca %"class.std::allocator", align 1
  %8 = getelementptr inbounds i8, ptr %0, i64 36
  %9 = load i32, ptr %8, align 4
  %10 = icmp sgt i32 %9, -1
  %11 = getelementptr inbounds i8, ptr %0, i64 32
  %12 = load i32, ptr %11, align 8
  %13 = icmp ne i32 %12, 0
  %or.cond.i.not26 = select i1 %13, i1 true, i1 %10
  %spec.select.i = tail call i32 @llvm.abs.i32(i32 %9, i1 true)
  %14 = icmp sge i32 %spec.select.i, %1
  %or.cond = select i1 %or.cond.i.not26, i1 %14, i1 false
  br i1 %or.cond, label %15, label %_Z13pj_log_activeP6pj_ctxi.exit.thread

15:                                               ; preds = %5
  %16 = tail call noalias dereferenceable_or_null(100000) ptr @malloc(i64 noundef 100000) #11
  %17 = icmp eq ptr %16, null
  br i1 %17, label %_Z13pj_log_activeP6pj_ctxi.exit.thread, label %18

18:                                               ; preds = %15
  %19 = icmp eq ptr %2, null
  br i1 %19, label %24, label %20

20:                                               ; preds = %18
  %21 = getelementptr inbounds i8, ptr %2, i64 8
  %22 = load ptr, ptr %21, align 8
  %23 = icmp eq ptr %22, null
  br i1 %23, label %24, label %26

24:                                               ; preds = %20, %18
  %25 = tail call i32 @vsnprintf(ptr noundef nonnull %16, i64 noundef 100000, ptr noundef %3, ptr noundef %4) #12
  br label %38

26:                                               ; preds = %20
  call void @_ZNSaIcEC1Ev(ptr noundef nonnull align 1 dereferenceable(1) %7) #12
  invoke void @_ZNSt7__cxx1112basic_stringIcSt11char_traitsIcESaIcEEC1EPKcRKS3_(ptr noundef nonnull align 8 dereferenceable(32) %6, ptr noundef nonnull %22, ptr noundef nonnull align 1 dereferenceable(1) %7)
          to label %27 unwind label %34

27:                                               ; preds = %26
  call void @_ZNSaIcED1Ev(ptr noundef nonnull align 1 dereferenceable(1) %7) #12
  %28 = invoke noundef nonnull align 8 dereferenceable(32) ptr @_ZNSt7__cxx1112basic_stringIcSt11char_traitsIcESaIcEEpLEPKc(ptr noundef nonnull align 8 dereferenceable(32) %6, ptr noundef nonnull @.str.1)
          to label %29 unwind label %36

29:                                               ; preds = %27
  %30 = invoke noundef nonnull align 8 dereferenceable(32) ptr @_ZNSt7__cxx1112basic_stringIcSt11char_traitsIcESaIcEEpLEPKc(ptr noundef nonnull align 8 dereferenceable(32) %6, ptr noundef %3)
          to label %31 unwind label %36

31:                                               ; preds = %29
  %32 = call noundef ptr @_ZNKSt7__cxx1112basic_stringIcSt11char_traitsIcESaIcEE5c_strEv(ptr noundef nonnull align 8 dereferenceable(32) %6) #12
  %33 = call i32 @vsnprintf(ptr noundef nonnull %16, i64 noundef 100000, ptr noundef %32, ptr noundef %4) #12
  call void @_ZNSt7__cxx1112basic_stringIcSt11char_traitsIcESaIcEED1Ev(ptr noundef nonnull align 8 dereferenceable(32) %6) #12
  br label %38

34:                                               ; preds = %26
  %35 = landingpad { ptr, i32 }
          cleanup
  call void @_ZNSaIcED1Ev(ptr noundef nonnull align 1 dereferenceable(1) %7) #12
  br label %44

36:                                               ; preds = %29, %27
  %37 = landingpad { ptr, i32 }
          cleanup
  call void @_ZNSt7__cxx1112basic_stringIcSt11char_traitsIcESaIcEED1Ev(ptr noundef nonnull align 8 dereferenceable(32) %6) #12
  br label %44

38:                                               ; preds = %31, %24
  %39 = getelementptr inbounds i8, ptr %16, i64 99999
  store i8 0, ptr %39, align 1
  %40 = getelementptr inbounds i8, ptr %0, i64 48
  %41 = load ptr, ptr %40, align 8
  %42 = getelementptr inbounds i8, ptr %0, i64 56
  %43 = load ptr, ptr %42, align 8
  call void %41(ptr noundef %43, i32 noundef %1, ptr noundef nonnull %16)
  call void @free(ptr noundef nonnull %16) #12
  br label %_Z13pj_log_activeP6pj_ctxi.exit.thread

_Z13pj_log_activeP6pj_ctxi.exit.thread:           ; preds = %5, %15, %38
  ret void

44:                                               ; preds = %36, %34
  %.pn = phi { ptr, i32 } [ %37, %36 ], [ %35, %34 ]
  resume { ptr, i32 } %.pn
}